; ModuleID = '12/776.c'
source_filename = "12/776.c"
target datalayout = "e-m:e-p270:32:32-p271:32:32-p272:64:64-i64:64-f80:128-n8:16:32:64-S128"
target triple = "x86_64-pc-linux-gnu"

@.str = private unnamed_addr constant [3 x i8] c"%d\00", align 1
@.str.1 = private unnamed_addr constant [4 x i8] c"%d\0A\00", align 1

; Function Attrs: noinline nounwind uwtable
define dso_local i32 @main() #0 {
  %1 = alloca i32, align 4
  %2 = alloca [20 x float], align 16
  %3 = alloca i32, align 4
  %4 = alloca i32, align 4
  %5 = alloca i32, align 4
  %6 = alloca float, align 4
  %7 = alloca i32, align 4
  %8 = alloca i32, align 4
  %9 = alloca i32, align 4
  store i32 0, i32* %1, align 4
  br label %10

10:                                               ; preds = %122, %0
  store i32 1, i32* %3, align 4
  br label %11

11:                                               ; preds = %26, %10
  %12 = load i32, i32* %3, align 4
  %13 = sext i32 %12 to i64
  %14 = getelementptr inbounds [20 x float], [20 x float]* %2, i64 0, i64 %13
  %15 = call i32 (i8*, ...) @__isoc99_scanf(i8* getelementptr inbounds ([3 x i8], [3 x i8]* @.str, i64 0, i64 0), float* %14)
  %16 = load i32, i32* %3, align 4
  %17 = sext i32 %16 to i64
  %18 = getelementptr inbounds [20 x float], [20 x float]* %2, i64 0, i64 %17
  %19 = load float, float* %18, align 4
  %20 = fcmp oeq float %19, 0.000000e+00
  br i1 %20, label %21, label %22

21:                                               ; preds = %11
  br label %29

22:                                               ; preds = %11
  %23 = load i32, i32* %3, align 4
  %24 = add nsw i32 %23, 1
  store i32 %24, i32* %3, align 4
  br label %25

25:                                               ; preds = %22
  br label %26

26:                                               ; preds = %25
  %27 = load i32, i32* %3, align 4
  %28 = icmp sle i32 %27, 19
  br i1 %28, label %11, label %29

29:                                               ; preds = %26, %21
  store i32 1, i32* %4, align 4
  br label %30

30:                                               ; preds = %77, %29
  %31 = load i32, i32* %4, align 4
  %32 = load i32, i32* %3, align 4
  %33 = sub nsw i32 %32, 2
  %34 = icmp sle i32 %31, %33
  br i1 %34, label %35, label %80

35:                                               ; preds = %30
  store i32 1, i32* %5, align 4
  br label %36

36:                                               ; preds = %73, %35
  %37 = load i32, i32* %5, align 4
  %38 = load i32, i32* %3, align 4
  %39 = sub nsw i32 %38, 1
  %40 = load i32, i32* %4, align 4
  %41 = sub nsw i32 %39, %40
  %42 = icmp sle i32 %37, %41
  br i1 %42, label %43, label %76

43:                                               ; preds = %36
  %44 = load i32, i32* %5, align 4
  %45 = sext i32 %44 to i64
  %46 = getelementptr inbounds [20 x float], [20 x float]* %2, i64 0, i64 %45
  %47 = load float, float* %46, align 4
  %48 = load i32, i32* %5, align 4
  %49 = add nsw i32 %48, 1
  %50 = sext i32 %49 to i64
  %51 = getelementptr inbounds [20 x float], [20 x float]* %2, i64 0, i64 %50
  %52 = load float, float* %51, align 4
  %53 = fcmp ogt float %47, %52
  br i1 %53, label %54, label %72

54:                                               ; preds = %43
  %55 = load i32, i32* %5, align 4
  %56 = sext i32 %55 to i64
  %57 = getelementptr inbounds [20 x float], [20 x float]* %2, i64 0, i64 %56
  %58 = load float, float* %57, align 4
  store float %58, float* %6, align 4
  %59 = load i32, i32* %5, align 4
  %60 = add nsw i32 %59, 1
  %61 = sext i32 %60 to i64
  %62 = getelementptr inbounds [20 x float], [20 x float]* %2, i64 0, i64 %61
  %63 = load float, float* %62, align 4
  %64 = load i32, i32* %5, align 4
  %65 = sext i32 %64 to i64
  %66 = getelementptr inbounds [20 x float], [20 x float]* %2, i64 0, i64 %65
  store float %63, float* %66, align 4
  %67 = load float, float* %6, align 4
  %68 = load i32, i32* %5, align 4
  %69 = add nsw i32 %68, 1
  %70 = sext i32 %69 to i64
  %71 = getelementptr inbounds [20 x float], [20 x float]* %2, i64 0, i64 %70
  store float %67, float* %71, align 4
  br label %72

72:                                               ; preds = %54, %43
  br label %73

73:                                               ; preds = %72
  %74 = load i32, i32* %5, align 4
  %75 = add nsw i32 %74, 1
  store i32 %75, i32* %5, align 4
  br label %36

76:                                               ; preds = %36
  br label %77

77:                                               ; preds = %76
  %78 = load i32, i32* %4, align 4
  %79 = add nsw i32 %78, 1
  store i32 %79, i32* %4, align 4
  br label %30

80:                                               ; preds = %30
  store i32 0, i32* %7, align 4
  store i32 1, i32* %8, align 4
  br label %81

81:                                               ; preds = %111, %80
  %82 = load i32, i32* %8, align 4
  %83 = load i32, i32* %3, align 4
  %84 = sub nsw i32 %83, 2
  %85 = icmp sle i32 %82, %84
  br i1 %85, label %86, label %114

86:                                               ; preds = %81
  store i32 1, i32* %9, align 4
  br label %87

87:                                               ; preds = %107, %86
  %88 = load i32, i32* %9, align 4
  %89 = load i32, i32* %3, align 4
  %90 = sub nsw i32 %89, 1
  %91 = icmp sle i32 %88, %90
  br i1 %91, label %92, label %110

92:                                               ; preds = %87
  %93 = load i32, i32* %9, align 4
  %94 = sext i32 %93 to i64
  %95 = getelementptr inbounds [20 x float], [20 x float]* %2, i64 0, i64 %94
  %96 = load float, float* %95, align 4
  %97 = load i32, i32* %8, align 4
  %98 = sext i32 %97 to i64
  %99 = getelementptr inbounds [20 x float], [20 x float]* %2, i64 0, i64 %98
  %100 = load float, float* %99, align 4
  %101 = fdiv float %96, %100
  %102 = fcmp oeq float %101, 2.000000e+00
  br i1 %102, label %103, label %106

103:                                              ; preds = %92
  %104 = load i32, i32* %7, align 4
  %105 = add nsw i32 %104, 1
  store i32 %105, i32* %7, align 4
  br label %106

106:                                              ; preds = %103, %92
  br label %107

107:                                              ; preds = %106
  %108 = load i32, i32* %9, align 4
  %109 = add nsw i32 %108, 1
  store i32 %109, i32* %9, align 4
  br label %87

110:                                              ; preds = %87
  br label %111

111:                                              ; preds = %110
  %112 = load i32, i32* %8, align 4
  %113 = add nsw i32 %112, 1
  store i32 %113, i32* %8, align 4
  br label %81

114:                                              ; preds = %81
  %115 = getelementptr inbounds [20 x float], [20 x float]* %2, i64 0, i64 1
  %116 = load float, float* %115, align 4
  %117 = fcmp ogt float %116, 0.000000e+00
  br i1 %117, label %118, label %121

118:                                              ; preds = %114
  %119 = load i32, i32* %7, align 4
  %120 = call i32 (i8*, ...) @printf(i8* getelementptr inbounds ([4 x i8], [4 x i8]* @.str.1, i64 0, i64 0), i32 %119)
  br label %121

121:                                              ; preds = %118, %114
  br label %122

122:                                              ; preds = %121
  %123 = getelementptr inbounds [20 x float], [20 x float]* %2, i64 0, i64 1
  %124 = load float, float* %123, align 4
  %125 = fcmp ogt float %124, 0.000000e+00
  br i1 %125, label %10, label %126

126:                                              ; preds = %122
  ret i32 0
}

declare dso_local i32 @__isoc99_scanf(i8*, ...) #1

declare dso_local i32 @printf(i8*, ...) #1


!llvm.module.flags = !{!0}
!llvm.ident = !{!1}

!0 = !{i32 1, !"wchar_size", i32 4}
!1 = !{!"clang version 10.0.0-4ubuntu1 "}
